target datalayout = "e-m:e-p270:32:32-p271:32:32-p272:64:64-i64:64-i128:128-f80:128-n8:16:32:64-S128"
target triple = "x86_64-unknown-linux-gnu"

%struct.redisServer = type { i32, i64, ptr, ptr, ptr, i32, i32, i32, i32, i32, ptr, ptr, ptr, ptr, ptr, ptr, i32, i32, i64, i32, i32, i32, i32, ptr, i32, i32, [41 x i8], i32, i64, i32, i32, i32, ptr, ptr, i32, i32, i64, ptr, ptr, ptr, ptr, [2 x i32], i32, i32, i32, i32, i32, [16 x ptr], i32, ptr, ptr, i32, [8 x %struct.connListener], i32, %struct.connListener, ptr, ptr, ptr, ptr, ptr, ptr, ptr, ptr, ptr, ptr, i32, ptr, i32, ptr, [3 x %struct.pause_event], [256 x i8], ptr, i64, i32, i32, i32, i32, i64, i32, i32, i32, i32, i32, i64, i64, i64, i64, i64, i64, i64, i64, i64, double, i64, i64, i64, i64, i64, i64, i64, i64, i64, i64, i64, i64, i64, i64, i64, i64, i64, i64, i64, i64, double, i64, i64, i64, i64, i64, ptr, i64, i64, i64, %struct.malloc_stats, i64, i64, i64, i64, i64, i64, i64, i64, i64, i64, i64, i64, double, [4 x i64], i64, i64, i64, i64, i64, i64, i64, i64, i64, i64, [7 x %struct.anon], i64, i64, i64, i64, i64, i64, [4 x %struct.durationStats], i32, i32, i32, i32, i32, i32, i32, i32, i32, i32, i64, i32, i32, i32, i32, i64, i64, i32, i32, i32, i32, i32, ptr, [3 x %struct.clientBufferLimitsConfig], i32, i32, ptr, i32, i32, i32, i32, ptr, ptr, i32, i32, i64, i64, i64, i64, i64, i32, i32, ptr, i32, i32, i64, i64, i64, i64, i64, i32, i32, i64, i32, i32, i32, i32, i32, i32, i32, i32, ptr, i32, i64, i64, i64, i64, ptr, i32, ptr, i32, i32, i32, i64, i64, i64, i64, i32, i32, i32, i32, i32, i32, ptr, i32, i32, ptr, i32, i32, i32, [2 x i32], i32, %struct.redisOpArray, i32, ptr, i32, ptr, i32, i32, i32, i32, i32, i32, i32, [41 x i8], [41 x i8], i64, i64, i64, i64, i32, i32, ptr, i64, i64, i64, i32, i32, i32, i32, i32, i32, i32, i64, ptr, ptr, ptr, ptr, i32, i32, ptr, ptr, i32, i32, i64, i64, i64, ptr, i32, ptr, i64, i32, i32, i32, i64, i32, i32, i32, i32, ptr, i32, i32, [41 x i8], i64, i32, ptr, i32, i32, i64, i64, i32, i32, i32, i32, i32, i64, [3 x i32], i32, i32, i32, [9 x i32], ptr, ptr, i32, i64, ptr, ptr, i32, i32, i32, i32, i64, i64, i64, i64, i64, i64, i64, i64, i64, i64, i32, i32, i64, i64, i32, i64, i64, i64, i64, i64, ptr, ptr, i32, ptr, i32, i32, i32, i64, i64, ptr, ptr, i32, i32, i32, i32, i32, ptr, ptr, ptr, i32, i32, i32, i32, i32, i32, i32, i64, i32, i64, i32, i32, i32, i32, i32, i32, i32, i64, ptr, ptr, i64, ptr, i32, %struct.aclInfo, i32, i64, i32, i32, i32, %struct.redisTLSContextConfig, ptr, ptr, ptr, ptr, ptr, i64, i32, ptr, i32, i32, i32, i64, i32, ptr }
%struct.connListener = type { [16 x i32], i32, ptr, i32, i32, ptr, ptr }
%struct.pause_event = type { i32, i64 }
%struct.malloc_stats = type { i64, i64, i64, i64, i64 }
%struct.anon = type { i64, i64, [16 x i64], i32 }
%struct.durationStats = type { i64, i64, i64 }
%struct.clientBufferLimitsConfig = type { i64, i64, i64 }
%struct.redisOpArray = type { ptr, i32, i32 }
%struct.aclInfo = type { i64, i64, i64, i64 }
%struct.redisTLSContextConfig = type { ptr, ptr, ptr, ptr, ptr, ptr, ptr, ptr, ptr, ptr, ptr, ptr, i32, i32, i32, i32 }

@server = dso_local global %struct.redisServer zeroinitializer, align 8
@.str.140 = private unnamed_addr constant [29 x i8] c"/proc/sys/net/core/somaxconn\00", align 1
@.str.141 = private unnamed_addr constant [2 x i8] c"r\00", align 1
@.str.142 = private unnamed_addr constant [128 x i8] c"WARNING: The TCP backlog setting of %d cannot be enforced because /proc/sys/net/core/somaxconn is set to the lower value of %d.\00", align 1

; Function Attrs: nounwind uwtable
define dso_local void @checkTcpBacklogSettings() #0 {
entry:
  %fp = alloca ptr, align 8
  %buf = alloca [1024 x i8], align 16
  %somaxconn = alloca i32, align 4
  %call = call noalias ptr @fopen64(ptr noundef @.str.140, ptr noundef @.str.141)
  store ptr %call, ptr %fp, align 8
  %0 = load ptr, ptr %fp, align 8
  %tobool = icmp ne ptr %0, null
  br i1 %tobool, label %if.end, label %if.then

if.then:                                          ; preds = %entry
  br label %return

if.end:                                           ; preds = %entry
  %arraydecay = getelementptr inbounds [1024 x i8], ptr %buf, i64 0, i64 0
  %1 = load ptr, ptr %fp, align 8
  %call1 = call ptr @fgets(ptr noundef %arraydecay, i32 noundef 1024, ptr noundef %1)
  %cmp = icmp ne ptr %call1, null
  br i1 %cmp, label %if.then2, label %if.end12

if.then2:                                         ; preds = %if.end
  %arraydecay3 = getelementptr inbounds [1024 x i8], ptr %buf, i64 0, i64 0
  %call4 = call i32 @atoi(ptr noundef %arraydecay3) #14
  store i32 %call4, ptr %somaxconn, align 4
  %2 = load i32, ptr %somaxconn, align 4
  %cmp5 = icmp sgt i32 %2, 0
  br i1 %cmp5, label %land.lhs.true, label %if.end11

land.lhs.true:                                    ; preds = %if.then2
  %3 = load i32, ptr %somaxconn, align 4
  %4 = load i32, ptr getelementptr inbounds (%struct.redisServer, ptr @server, i32 0, i32 46), align 8
  %cmp6 = icmp slt i32 %3, %4
  br i1 %cmp6, label %if.then7, label %if.end11

if.then7:                                         ; preds = %land.lhs.true
  br label %do.body

do.body:                                          ; preds = %if.then7
  %5 = load i32, ptr getelementptr inbounds (%struct.redisServer, ptr @server, i32 0, i32 156), align 8
  %cmp8 = icmp slt i32 3, %5
  br i1 %cmp8, label %if.then9, label %if.end10

if.then9:                                         ; preds = %do.body
  br label %do.end

if.end10:                                         ; preds = %do.body
  %6 = load i32, ptr getelementptr inbounds (%struct.redisServer, ptr @server, i32 0, i32 46), align 8
  %7 = load i32, ptr %somaxconn, align 4
  call void (i32, ptr, ...) @_serverLog(i32 noundef 3, ptr noundef @.str.142, i32 noundef %6, i32 noundef %7)
  br label %do.end

do.end:                                           ; preds = %if.end10, %if.then9
  br label %if.end11

if.end11:                                         ; preds = %do.end, %land.lhs.true, %if.then2
  br label %if.end12

if.end12:                                         ; preds = %if.end11, %if.end
  %8 = load ptr, ptr %fp, align 8
  %call13 = call i32 @fclose(ptr noundef %8)
  br label %return

return:                                           ; preds = %if.end12, %if.then
  ret void
}