; Function Attrs: nounwind uwtable
define dso_local void @checkTcpBacklogSettings() local_unnamed_addr #0 {
entry:
  %buf = alloca [1024 x i8], align 16
  %call = tail call noalias ptr @fopen64(ptr noundef nonnull @.str.140, ptr noundef nonnull @.str.141)
  %tobool.not = icmp eq ptr %call, null
  br i1 %tobool.not, label %return, label %if.end

if.end:                                           ; preds = %entry
  %call1 = call ptr @fgets(ptr noundef nonnull %buf, i32 noundef 1024, ptr noundef nonnull %call)
  %cmp.not = icmp eq ptr %call1, null
  br i1 %cmp.not, label %if.end12, label %if.then2

if.then2:                                         ; preds = %if.end
  %call4 = call i32 @atoi(ptr nocapture noundef nonnull %buf) #39
  %cmp5 = icmp sgt i32 %call4, 0
  br i1 %cmp5, label %land.lhs.true, label %if.end12

land.lhs.true:                                    ; preds = %if.then2
  %0 = load i32, ptr getelementptr inbounds (%struct.redisServer, ptr @server, i64 0, i32 46), align 8
  %cmp6 = icmp sge i32 %call4, %0
  %1 = load i32, ptr getelementptr inbounds (%struct.redisServer, ptr @server, i64 0, i32 156), align 8
  %cmp8 = icmp sgt i32 %1, 3
  %or.cond = select i1 %cmp6, i1 true, i1 %cmp8
  br i1 %or.cond, label %if.end12, label %if.end10

if.end10:                                         ; preds = %land.lhs.true
  call void (i32, ptr, ...) @_serverLog(i32 noundef 3, ptr noundef nonnull @.str.142, i32 noundef %0, i32 noundef %call4)
  br label %if.end12

if.end12:                                         ; preds = %if.then2, %land.lhs.true, %if.end10, %if.end
  %call13 = call i32 @fclose(ptr noundef nonnull %call)
  br label %return

return:                                           ; preds = %entry, %if.end12
  ret void
}